target datalayout = "e-m:e-p270:32:32-p271:32:32-p272:64:64-i64:64-i128:128-f80:128-n8:16:32:64-S128"
target triple = "x86_64-pc-linux-gnu"

%struct._GdkRGBA = type { double, double, double, double }
%struct.darktable_t = type { %struct.dt_codepath_t, i32, i32, ptr, ptr, ptr, ptr, ptr, ptr, ptr, ptr, ptr, ptr, ptr, ptr, ptr, ptr, ptr, ptr, ptr, ptr, ptr, ptr, ptr, ptr, ptr, ptr, ptr, ptr, ptr, [64 x %struct.dt_pthread_mutex_t], %struct.dt_pthread_mutex_t, %struct.dt_pthread_mutex_t, %struct.dt_pthread_mutex_t, %struct.dt_pthread_mutex_t, %struct.dt_pthread_mutex_t, ptr, ptr, ptr, ptr, ptr, ptr, ptr, ptr, ptr, ptr, ptr, ptr, ptr, %struct.dt_lua_state_t, ptr, double, ptr, i32, [47 x i32], i32, i32, ptr, ptr, %struct.dt_sys_resources_t, %struct.dt_backthumb_t, %struct.dt_gimp_t }
%struct.dt_codepath_t = type { i8, [3 x i8] }
%struct.dt_pthread_mutex_t = type { %union.pthread_mutex_t }
%union.pthread_mutex_t = type { %struct.__pthread_mutex_s }
%struct.__pthread_mutex_s = type { i32, i32, i32, i32, i32, i16, i16, %struct.__pthread_internal_list }
%struct.__pthread_internal_list = type { ptr, ptr }
%struct.dt_lua_state_t = type { i32 }
%struct.dt_sys_resources_t = type { i64, i64, ptr, ptr, i32 }
%struct.dt_backthumb_t = type { double, double, i32, i32, i32, i32 }
%struct.dt_gimp_t = type { i32, ptr, ptr, i32, i32 }
%struct.dt_iop_module_t = type { i32, ptr, ptr, ptr, ptr, ptr, ptr, ptr, ptr, ptr, ptr, ptr, ptr, ptr, ptr, ptr, ptr, ptr, ptr, ptr, ptr, ptr, ptr, ptr, ptr, ptr, ptr, ptr, ptr, ptr, ptr, ptr, ptr, ptr, ptr, ptr, ptr, ptr, ptr, ptr, ptr, ptr, ptr, ptr, ptr, ptr, ptr, ptr, ptr, ptr, ptr, ptr, ptr, ptr, ptr, ptr, ptr, [20 x i8], i32, i32, i32, i32, i32, i32, i32, [8 x i8], [4 x float], [4 x float], [4 x float], [4 x float], [4 x float], [4 x float], ptr, %struct.dt_dev_histogram_stats_t, [4 x i32], i32, i32, ptr, i32, i32, ptr, ptr, i32, ptr, %struct.dt_pthread_mutex_t, ptr, ptr, ptr, ptr, %struct.anon, ptr, ptr, ptr, ptr, ptr, ptr, ptr, i32, ptr, ptr, ptr, ptr, ptr, ptr, ptr, i32, ptr, i32, [128 x i8], i32, ptr, ptr, i32, [12 x i8] }
%struct.dt_dev_histogram_stats_t = type { i32, i64, i32, i32 }
%struct.anon = type { %struct.anon.0, %struct.anon.1 }
%struct.anon.0 = type { ptr, ptr }
%struct.anon.1 = type { ptr, i32 }
%struct.dt_iop_gui_blend_data_t = type { i32, i32, i32, i32, i32, i32, i32, ptr, ptr, ptr, ptr, ptr, ptr, ptr, ptr, ptr, ptr, ptr, ptr, ptr, [2 x %struct.dt_iop_gui_blendif_filter_t], ptr, ptr, ptr, ptr, ptr, ptr, ptr, ptr, ptr, ptr, ptr, ptr, i32, i32, ptr, i32, [8 x [2 x i32]], i32, i32, ptr, i32, ptr, ptr, ptr, [5 x ptr], [5 x i32], ptr, ptr, ptr, i32, ptr, ptr, i32, %struct.dt_pthread_mutex_t }
%struct.dt_iop_gui_blendif_filter_t = type { ptr, ptr, [4 x ptr], ptr, ptr, ptr }
%struct.dt_gui_gtk_t = type { ptr, %struct.dt_gui_widgets_t, %struct.dt_gui_scrollbars_t, i32, ptr, i32, [39 x %struct._GdkRGBA], i32, i32, i32, i32, i32, double, double, double, double, ptr, double, double, double, double, i32, i32, [4096 x i8], i32, i32, i32, %struct.dt_pthread_mutex_t }
%struct.dt_gui_widgets_t = type { ptr, ptr, ptr, ptr, i32, i32, i32 }
%struct.dt_gui_scrollbars_t = type { ptr, ptr, i32 }
%struct.dt_iop_gui_blendif_channel_t = type { ptr, ptr, float, i32, ptr, i32, float, [2 x i32], i32, ptr, ptr, ptr }
%struct._GdkEventCrossing = type { i32, ptr, i8, ptr, i32, double, double, double, double, i32, i32, i32, i32 }

@darktable = external global %struct.darktable_t, align 8
@dt_modifier_shortcuts = external global i32, align 4

; Function Attrs: nounwind uwtable
define internal void @_blendop_blendif_channel_mask_view(ptr noundef %0, ptr noundef %1, i32 noundef %2) #0 {
  %4 = alloca ptr, align 8
  %5 = alloca ptr, align 8
  %6 = alloca i32, align 4
  %7 = alloca ptr, align 8
  %8 = alloca i32, align 4
  %9 = alloca i32, align 4
  store ptr %0, ptr %4, align 8, !tbaa !11
  store ptr %1, ptr %5, align 8, !tbaa !6
  store i32 %2, ptr %6, align 4, !tbaa !80
  call void @llvm.lifetime.start.p0(i64 8, ptr %7) #11
  %10 = load ptr, ptr %5, align 8, !tbaa !6
  %11 = getelementptr inbounds nuw %struct.dt_iop_module_t, ptr %10, i32 0, i32 88
  %12 = load ptr, ptr %11, align 8, !tbaa !15
  store ptr %12, ptr %7, align 8, !tbaa !31
  call void @llvm.lifetime.start.p0(i64 4, ptr %8) #11
  %13 = load ptr, ptr %5, align 8, !tbaa !6
  %14 = getelementptr inbounds nuw %struct.dt_iop_module_t, ptr %13, i32 0, i32 63
  %15 = load i32, ptr %14, align 16, !tbaa !158
  %16 = load i32, ptr %6, align 4, !tbaa !80
  %17 = or i32 %15, %16
  store i32 %17, ptr %8, align 4, !tbaa !80
  %18 = load i32, ptr %8, align 4, !tbaa !80
  %19 = and i32 %18, 2
  %20 = icmp ne i32 %19, 0
  br i1 %20, label %21, label %50

21:                                               ; preds = %3
  call void @llvm.lifetime.start.p0(i64 4, ptr %9) #11
  %22 = load ptr, ptr %7, align 8, !tbaa !31
  %23 = getelementptr inbounds nuw %struct.dt_iop_gui_blend_data_t, ptr %22, i32 0, i32 35
  %24 = load ptr, ptr %23, align 8, !tbaa !85
  %25 = load ptr, ptr %7, align 8, !tbaa !31
  %26 = getelementptr inbounds nuw %struct.dt_iop_gui_blend_data_t, ptr %25, i32 0, i32 36
  %27 = load i32, ptr %26, align 8, !tbaa !79
  %28 = sext i32 %27 to i64
  %29 = getelementptr inbounds %struct.dt_iop_gui_blendif_channel_t, ptr %24, i64 %28
  %30 = getelementptr inbounds nuw %struct.dt_iop_gui_blendif_channel_t, ptr %29, i32 0, i32 8
  %31 = load i32, ptr %30, align 8, !tbaa !307
  store i32 %31, ptr %9, align 4, !tbaa !80
  %32 = load ptr, ptr %4, align 8, !tbaa !11
  %33 = load ptr, ptr %7, align 8, !tbaa !31
  %34 = getelementptr inbounds nuw %struct.dt_iop_gui_blend_data_t, ptr %33, i32 0, i32 20
  %35 = getelementptr inbounds [2 x %struct.dt_iop_gui_blendif_filter_t], ptr %34, i64 0, i64 1
  %36 = getelementptr inbounds nuw %struct.dt_iop_gui_blendif_filter_t, ptr %35, i32 0, i32 0
  %37 = load ptr, ptr %36, align 8, !tbaa !121
  %38 = call i64 @gtk_widget_get_type() #12
  %39 = call ptr @g_type_check_instance_cast(ptr noundef %37, i64 noundef %38)
  %40 = icmp eq ptr %32, %39
  br i1 %40, label %41, label %44

41:                                               ; preds = %21
  %42 = load i32, ptr %9, align 4, !tbaa !80
  %43 = or i32 %42, 4
  store i32 %43, ptr %9, align 4, !tbaa !80
  br label %44

44:                                               ; preds = %41, %21
  %45 = load i32, ptr %8, align 4, !tbaa !80
  %46 = and i32 %45, -1021
  store i32 %46, ptr %8, align 4, !tbaa !80
  %47 = load i32, ptr %9, align 4, !tbaa !80
  %48 = load i32, ptr %8, align 4, !tbaa !80
  %49 = or i32 %48, %47
  store i32 %49, ptr %8, align 4, !tbaa !80
  call void @llvm.lifetime.end.p0(i64 4, ptr %9) #11
  br label %50

50:                                               ; preds = %44, %3
  %51 = load i32, ptr %8, align 4, !tbaa !80
  %52 = load ptr, ptr %5, align 8, !tbaa !6
  %53 = getelementptr inbounds nuw %struct.dt_iop_module_t, ptr %52, i32 0, i32 63
  %54 = load i32, ptr %53, align 16, !tbaa !158
  %55 = icmp ne i32 %51, %54
  br i1 %55, label %56, label %61

56:                                               ; preds = %50
  %57 = load i32, ptr %8, align 4, !tbaa !80
  %58 = load ptr, ptr %5, align 8, !tbaa !6
  %59 = getelementptr inbounds nuw %struct.dt_iop_module_t, ptr %58, i32 0, i32 63
  store i32 %57, ptr %59, align 16, !tbaa !158
  %60 = load ptr, ptr %5, align 8, !tbaa !6
  call void @dt_iop_refresh_center(ptr noundef %60)
  br label %61

61:                                               ; preds = %56, %50
  call void @llvm.lifetime.end.p0(i64 4, ptr %8) #11
  call void @llvm.lifetime.end.p0(i64 8, ptr %7) #11
  ret void
}

; Function Attrs: inlinehint nounwind uwtable
define internal i32 @dt_pthread_mutex_unlock(ptr noundef %0) #3 {
  %2 = alloca ptr, align 8
  store ptr %0, ptr %2, align 8, !tbaa !138
  %3 = load ptr, ptr %2, align 8, !tbaa !138
  %4 = getelementptr inbounds nuw %struct.dt_pthread_mutex_t, ptr %3, i32 0, i32 0
  %5 = call i32 @pthread_mutex_unlock(ptr noundef %4) #11
  ret i32 %5
}

; Function Attrs: inlinehint nounwind uwtable
define internal i32 @dt_pthread_mutex_lock(ptr noundef %0) #3 {
  %2 = alloca ptr, align 8
  store ptr %0, ptr %2, align 8, !tbaa !138
  %3 = load ptr, ptr %2, align 8, !tbaa !138
  %4 = getelementptr inbounds nuw %struct.dt_pthread_mutex_t, ptr %3, i32 0, i32 0
  %5 = call i32 @pthread_mutex_lock(ptr noundef %4) #11
  ret i32 %5
}

; Function Attrs: inlinehint nounwind uwtable
define internal i32 @dt_modifier_is(i32 noundef %0, i32 noundef %1) #3 {
  %3 = alloca i32, align 4
  %4 = alloca i32, align 4
  %5 = alloca i32, align 4
  store i32 %0, ptr %3, align 4, !tbaa !80
  store i32 %1, ptr %4, align 4, !tbaa !80
  call void @llvm.lifetime.start.p0(i64 4, ptr %5) #11
  %6 = call i32 @gtk_accelerator_get_default_mod_mask()
  store i32 %6, ptr %5, align 4, !tbaa !80
  %7 = load i32, ptr %3, align 4, !tbaa !80
  %8 = load i32, ptr @dt_modifier_shortcuts, align 4, !tbaa !80
  %9 = or i32 %7, %8
  %10 = load i32, ptr %5, align 4, !tbaa !80
  %11 = and i32 %9, %10
  %12 = load i32, ptr %4, align 4, !tbaa !80
  %13 = icmp eq i32 %11, %12
  %14 = zext i1 %13 to i32
  call void @llvm.lifetime.end.p0(i64 4, ptr %5) #11
  ret i32 %14
}

; Function Attrs: nounwind uwtable
define internal i32 @_blendop_blendif_enter(ptr noundef %0, ptr noundef %1, ptr noundef %2) #0 {
  %4 = alloca i32, align 4
  %5 = alloca ptr, align 8
  %6 = alloca ptr, align 8
  %7 = alloca ptr, align 8
  %8 = alloca ptr, align 8
  %9 = alloca i32, align 4
  store ptr %0, ptr %5, align 8, !tbaa !11
  store ptr %1, ptr %6, align 8, !tbaa !178
  store ptr %2, ptr %7, align 8, !tbaa !6
  %10 = load ptr, ptr getelementptr inbounds nuw (%struct.darktable_t, ptr @darktable, i32 0, i32 14), align 8, !tbaa !39
  %11 = getelementptr inbounds nuw %struct.dt_gui_gtk_t, ptr %10, i32 0, i32 5
  %12 = load i32, ptr %11, align 8, !tbaa !72
  %13 = icmp ne i32 %12, 0
  br i1 %13, label %14, label %15

14:                                               ; preds = %3
  store i32 0, ptr %4, align 4
  br label %86

15:                                               ; preds = %3
  call void @llvm.lifetime.start.p0(i64 8, ptr %8) #11
  %16 = load ptr, ptr %7, align 8, !tbaa !6
  %17 = getelementptr inbounds nuw %struct.dt_iop_module_t, ptr %16, i32 0, i32 88
  %18 = load ptr, ptr %17, align 8, !tbaa !15
  store ptr %18, ptr %8, align 8, !tbaa !31
  call void @llvm.lifetime.start.p0(i64 4, ptr %9) #11
  store i32 0, ptr %9, align 4, !tbaa !80
  %19 = load ptr, ptr %6, align 8, !tbaa !178
  %20 = getelementptr inbounds nuw %struct._GdkEventCrossing, ptr %19, i32 0, i32 12
  %21 = load i32, ptr %20, align 4, !tbaa !180
  %22 = call i32 @dt_modifier_is(i32 noundef %21, i32 noundef 5)
  %23 = icmp ne i32 %22, 0
  br i1 %23, label %24, label %25

24:                                               ; preds = %15
  store i32 3, ptr %9, align 4, !tbaa !80
  br label %41

25:                                               ; preds = %15
  %26 = load ptr, ptr %6, align 8, !tbaa !178
  %27 = getelementptr inbounds nuw %struct._GdkEventCrossing, ptr %26, i32 0, i32 12
  %28 = load i32, ptr %27, align 4, !tbaa !180
  %29 = call i32 @dt_modifier_is(i32 noundef %28, i32 noundef 1)
  %30 = icmp ne i32 %29, 0
  br i1 %30, label %31, label %32

31:                                               ; preds = %25
  store i32 2, ptr %9, align 4, !tbaa !80
  br label %40

32:                                               ; preds = %25
  %33 = load ptr, ptr %6, align 8, !tbaa !178
  %34 = getelementptr inbounds nuw %struct._GdkEventCrossing, ptr %33, i32 0, i32 12
  %35 = load i32, ptr %34, align 4, !tbaa !180
  %36 = call i32 @dt_modifier_is(i32 noundef %35, i32 noundef 4)
  %37 = icmp ne i32 %36, 0
  br i1 %37, label %38, label %39

38:                                               ; preds = %32
  store i32 1, ptr %9, align 4, !tbaa !80
  br label %39

39:                                               ; preds = %38, %32
  br label %40

40:                                               ; preds = %39, %31
  br label %41

41:                                               ; preds = %40, %24
  %42 = load ptr, ptr %8, align 8, !tbaa !31
  %43 = getelementptr inbounds nuw %struct.dt_iop_gui_blend_data_t, ptr %42, i32 0, i32 54
  %44 = call i32 @dt_pthread_mutex_lock(ptr noundef %43)
  %45 = load i32, ptr %9, align 4, !tbaa !80
  %46 = icmp ne i32 %45, 0
  br i1 %46, label %47, label %59

47:                                               ; preds = %41
  %48 = load ptr, ptr %8, align 8, !tbaa !31
  %49 = getelementptr inbounds nuw %struct.dt_iop_gui_blend_data_t, ptr %48, i32 0, i32 39
  %50 = load i32, ptr %49, align 8, !tbaa !157
  %51 = icmp ne i32 %50, 0
  br i1 %51, label %52, label %59

52:                                               ; preds = %47
  %53 = load ptr, ptr %8, align 8, !tbaa !31
  %54 = getelementptr inbounds nuw %struct.dt_iop_gui_blend_data_t, ptr %53, i32 0, i32 39
  %55 = load i32, ptr %54, align 8, !tbaa !157
  %56 = call i32 @g_source_remove(i32 noundef %55)
  %57 = load ptr, ptr %8, align 8, !tbaa !31
  %58 = getelementptr inbounds nuw %struct.dt_iop_gui_blend_data_t, ptr %57, i32 0, i32 39
  store i32 0, ptr %58, align 8, !tbaa !157
  br label %78

59:                                               ; preds = %47, %41
  %60 = load ptr, ptr %8, align 8, !tbaa !31
  %61 = getelementptr inbounds nuw %struct.dt_iop_gui_blend_data_t, ptr %60, i32 0, i32 39
  %62 = load i32, ptr %61, align 8, !tbaa !157
  %63 = icmp ne i32 %62, 0
  br i1 %63, label %77, label %64

64:                                               ; preds = %59
  %65 = load ptr, ptr %8, align 8, !tbaa !31
  %66 = getelementptr inbounds nuw %struct.dt_iop_gui_blend_data_t, ptr %65, i32 0, i32 38
  %67 = load i32, ptr %66, align 4, !tbaa !159
  %68 = and i32 %67, 65536
  %69 = icmp ne i32 %68, 0
  br i1 %69, label %77, label %70

70:                                               ; preds = %64
  %71 = load ptr, ptr %7, align 8, !tbaa !6
  %72 = getelementptr inbounds nuw %struct.dt_iop_module_t, ptr %71, i32 0, i32 63
  %73 = load i32, ptr %72, align 16, !tbaa !158
  %74 = and i32 %73, -65537
  %75 = load ptr, ptr %8, align 8, !tbaa !31
  %76 = getelementptr inbounds nuw %struct.dt_iop_gui_blend_data_t, ptr %75, i32 0, i32 38
  store i32 %74, ptr %76, align 4, !tbaa !159
  br label %77

77:                                               ; preds = %70, %64, %59
  br label %78

78:                                               ; preds = %77, %52
  %79 = load ptr, ptr %8, align 8, !tbaa !31
  %80 = getelementptr inbounds nuw %struct.dt_iop_gui_blend_data_t, ptr %79, i32 0, i32 54
  %81 = call i32 @dt_pthread_mutex_unlock(ptr noundef %80)
  %82 = load ptr, ptr %5, align 8, !tbaa !11
  %83 = load ptr, ptr %7, align 8, !tbaa !6
  %84 = load i32, ptr %9, align 4, !tbaa !80
  call void @_blendop_blendif_channel_mask_view(ptr noundef %82, ptr noundef %83, i32 noundef %84)
  %85 = load ptr, ptr %5, align 8, !tbaa !11
  call void @gtk_widget_grab_focus(ptr noundef %85)
  store i32 0, ptr %4, align 4
  call void @llvm.lifetime.end.p0(i64 4, ptr %9) #11
  call void @llvm.lifetime.end.p0(i64 8, ptr %8) #11
  br label %86

86:                                               ; preds = %78, %14
  %87 = load i32, ptr %4, align 4
  ret i32 %87
}