; Function Attrs: nounwind uwtable
define internal noundef i32 @_blendop_blendif_enter(ptr noundef %0, ptr noundef readonly captures(none) %1, ptr noundef %2) #0 {
  %4 = load ptr, ptr getelementptr inbounds nuw (i8, ptr @darktable, i64 104), align 8, !tbaa !33
  %5 = getelementptr inbounds nuw i8, ptr %4, i64 96
  %6 = load i32, ptr %5, align 8, !tbaa !66
  %.not = icmp eq i32 %6, 0
  br i1 %.not, label %7, label %75

7:                                                ; preds = %3
  %8 = getelementptr inbounds nuw i8, ptr %2, i64 776
  %9 = load ptr, ptr %8, align 8, !tbaa !6
  %10 = getelementptr inbounds nuw i8, ptr %1, i64 84
  %11 = load i32, ptr %10, align 4, !tbaa !156
  %12 = tail call i32 @gtk_accelerator_get_default_mod_mask() #18
  %13 = load i32, ptr @dt_modifier_shortcuts, align 4, !tbaa !77
  %14 = or i32 %13, %11
  %15 = and i32 %14, %12
  %.not33 = icmp eq i32 %15, 5
  br i1 %.not33, label %.thread, label %16

16:                                               ; preds = %7
  %17 = load i32, ptr %10, align 4, !tbaa !156
  %18 = tail call i32 @gtk_accelerator_get_default_mod_mask() #18
  %19 = load i32, ptr @dt_modifier_shortcuts, align 4, !tbaa !77
  %20 = or i32 %19, %17
  %21 = and i32 %20, %18
  %.not34 = icmp eq i32 %21, 1
  br i1 %.not34, label %.thread, label %24

.thread:                                          ; preds = %7, %16
  %.0.ph = phi i32 [ 2, %16 ], [ 3, %7 ]
  %22 = getelementptr inbounds nuw i8, ptr %9, i64 632
  %23 = tail call i32 @pthread_mutex_lock(ptr noundef nonnull %22) #18
  br label %32

24:                                               ; preds = %16
  %25 = load i32, ptr %10, align 4, !tbaa !156
  %26 = tail call i32 @gtk_accelerator_get_default_mod_mask() #18
  %27 = load i32, ptr @dt_modifier_shortcuts, align 4, !tbaa !77
  %28 = or i32 %27, %25
  %29 = and i32 %28, %26
  %.not35 = icmp eq i32 %29, 4
  %30 = getelementptr inbounds nuw i8, ptr %9, i64 632
  %31 = tail call i32 @pthread_mutex_lock(ptr noundef nonnull %30) #18
  br i1 %.not35, label %32, label %38

32:                                               ; preds = %.thread, %24
  %33 = phi ptr [ %22, %.thread ], [ %30, %24 ]
  %.032 = phi i32 [ %.0.ph, %.thread ], [ 1, %24 ]
  %34 = getelementptr inbounds nuw i8, ptr %9, i64 464
  %35 = load i32, ptr %34, align 8, !tbaa !143
  %.not24 = icmp eq i32 %35, 0
  br i1 %.not24, label %.thread36, label %36

36:                                               ; preds = %32
  %37 = tail call i32 @g_source_remove(i32 noundef %35) #18
  store i32 0, ptr %34, align 8, !tbaa !143
  br label %48

38:                                               ; preds = %24
  %.phi.trans.insert = getelementptr inbounds nuw i8, ptr %9, i64 464
  %.pre = load i32, ptr %.phi.trans.insert, align 8, !tbaa !143
  %39 = icmp eq i32 %.pre, 0
  br i1 %39, label %.thread36, label %48

.thread36:                                        ; preds = %32, %38
  %.03139 = phi i32 [ 0, %38 ], [ %.032, %32 ]
  %40 = phi ptr [ %30, %38 ], [ %33, %32 ]
  %41 = getelementptr inbounds nuw i8, ptr %9, i64 460
  %42 = load i32, ptr %41, align 4, !tbaa !145
  %43 = and i32 %42, 65536
  %.not26 = icmp eq i32 %43, 0
  br i1 %.not26, label %44, label %48

44:                                               ; preds = %.thread36
  %45 = getelementptr inbounds nuw i8, ptr %2, i64 496
  %46 = load i32, ptr %45, align 16, !tbaa !144
  %47 = and i32 %46, -65537
  store i32 %47, ptr %41, align 4, !tbaa !145
  br label %48

48:                                               ; preds = %38, %.thread36, %44, %36
  %49 = phi ptr [ %30, %38 ], [ %40, %.thread36 ], [ %40, %44 ], [ %33, %36 ]
  %.030 = phi i32 [ 0, %38 ], [ %.03139, %.thread36 ], [ %.03139, %44 ], [ %.032, %36 ]
  %50 = tail call i32 @pthread_mutex_unlock(ptr noundef nonnull %49) #18
  %51 = getelementptr inbounds nuw i8, ptr %2, i64 496
  %52 = load i32, ptr %51, align 16, !tbaa !144
  %53 = or i32 %52, %.030
  %54 = and i32 %53, 2
  %.not.i = icmp eq i32 %54, 0
  br i1 %.not.i, label %72, label %55

55:                                               ; preds = %48
  %56 = load ptr, ptr %8, align 8, !tbaa !6
  %57 = getelementptr inbounds nuw i8, ptr %56, i64 384
  %58 = load ptr, ptr %57, align 8, !tbaa !76
  %59 = getelementptr inbounds nuw i8, ptr %56, i64 392
  %60 = load i32, ptr %59, align 8, !tbaa !72
  %61 = sext i32 %60 to i64
  %62 = getelementptr inbounds %struct.dt_iop_gui_blendif_channel_t, ptr %58, i64 %61, i32 8
  %63 = load i32, ptr %62, align 8, !tbaa !159
  %64 = getelementptr inbounds nuw i8, ptr %56, i64 208
  %65 = load ptr, ptr %64, align 8, !tbaa !108
  %66 = tail call i64 @gtk_widget_get_type() #19
  %67 = tail call ptr @g_type_check_instance_cast(ptr noundef %65, i64 noundef %66) #18
  %68 = icmp eq ptr %0, %67
  %69 = or i32 %63, 4
  %spec.select.i = select i1 %68, i32 %69, i32 %63
  %70 = and i32 %53, -1021
  %71 = or i32 %spec.select.i, %70
  %.pre.i = load i32, ptr %51, align 16, !tbaa !144
  br label %72

72:                                               ; preds = %55, %48
  %73 = phi i32 [ %.pre.i, %55 ], [ %52, %48 ]
  %.016.i = phi i32 [ %71, %55 ], [ %53, %48 ]
  %.not17.i = icmp eq i32 %.016.i, %73
  br i1 %.not17.i, label %_blendop_blendif_channel_mask_view.exit, label %74

74:                                               ; preds = %72
  store i32 %.016.i, ptr %51, align 16, !tbaa !144
  tail call void @dt_iop_refresh_center(ptr noundef nonnull %2) #18
  br label %_blendop_blendif_channel_mask_view.exit

_blendop_blendif_channel_mask_view.exit:          ; preds = %72, %74
  tail call void @gtk_widget_grab_focus(ptr noundef %0) #18
  br label %75

75:                                               ; preds = %3, %_blendop_blendif_channel_mask_view.exit
  ret i32 0
}